(lp0
I0
aI0
aI0
aI0
aI0
aI0
aI0
aI0
aI0
aI0
aI0
aI0
aI0
aI0
aI0
aI0
aI0
aI0
aI0
aI0
aI0
aI0
aI0
aI0
aI0
aI0
aI0
aI0
aI0
aI0
aI0
acnumpy.core.multiarray
scalar
p1
(cnumpy
dtype
p2
(S'f8'
p3
I0
I1
tp4
Rp5
(I3
S'<'
p6
NNNI-1
I-1
I0
tp7
bS'\xb3L\x86\x8fS\n\xc4G'
p8
tp9
Rp10
aI0
aI0
aI0
aI0
aI0
aI0
aI0
aI0
aI0
aI0
aI0
aI0
aI0
ag1
(g5
S'4\xd1:E\xb9\x94\xa3G'
p11
tp12
Rp13
aI0
aI0
aI0
aI0
aI0
aI0
aI0
aI0
aI0
ag1
(g5
S'\xe0[6\xb68\xfe\x8fG'
p14
tp15
Rp16
aI0
aI0
ag1
(g5
S'\x10\xe1\xf6\x01\xedD\xd3G'
p17
tp18
Rp19
aI0
aI0
aI0
aI0
aI0
aI0
aI0
ag1
(g5
S'\x9a\xdbZ\x1ar\xe9nG'
p20
tp21
Rp22
aI0
aI0
aI0
aI0
aI0
aI0
aI0
aI0
aI0
aI0
aI0
aI0
aI0
aI0
aI0
aI0
aI0
aI0
aI0
ag1
(g5
S'\x95\xb2\x9c\xc8\x02\xec\x9eG'
p23
tp24
Rp25
aI0
aI0
aI0
aI0
ag1
(g5
S'\x00\x00\x00\x00\x00\x00\xf8\x7f'
p26
tp27
Rp28
ag1
(g5
S'\xae\xccl\x04\xc1\x93\x94G'
p29
tp30
Rp31
aI0
aI0
aI0
aI0
aI0
aI0
aI0
aI0
aI0
aI0
aI0
ag1
(g5
S"\xa6\x14\xb3'\xfd\x15\xb2G"
p32
tp33
Rp34
ag1
(g5
S'E\x06\x18\x8c\x95W\x87G'
p35
tp36
Rp37
aI0
aI0
aI0
aI0
aI0
aI0
aI0
aI0
aI0
aI0
aI0
aI0
aI0
ag1
(g5
S'x\xa3\xa8K\xd0\xb1\x82G'
p38
tp39
Rp40
aI0
aI0
aI0
aI0
aI0
aI0
aI0
aI0
aI0
aI0
aI0
aI0
aI0
aI0
aI0
aI0
aI0
ag1
(g5
S'1\x81\xe2\xa5\xfdU\xd5G'
p41
tp42
Rp43
ag1
(g5
S'\x91]\\`\xf1\x9c\x8cG'
p44
tp45
Rp46
aI0
aI0
aI0
aI0
aI0
aI0
aI0
aI0
aI0
aI0
aI0
aI0
aI0
aI0
aI0
aI0
aI0
aI0
ag1
(g5
S'6+\xdb\xec\xaej\xc1G'
p47
tp48
Rp49
aI0
aI0
aI0
aI0
aI0
aI0
aI0
ag1
(g5
S'{_\xcaX$0\x8bG'
p50
tp51
Rp52
aI0
aI0
aI0
aI0
aI0
aI0
aI0
aI0
aI0
aI0
aI0
aI0
aI0
aI0
ag1
(g5
S'kc_r\x0c\xfd\xa9G'
p53
tp54
Rp55
aI0
aI0
aI0
aI0
aI0
aI0
aI0
aI0
ag1
(g5
S'\xda\xc9\xd8Ed\xe7\xadG'
p56
tp57
Rp58
ag1
(g5
S'L\xf8\x18\x95\x973\xa1G'
p59
tp60
Rp61
aI0
ag1
(g5
S'\x8e\xe1\x81J\n\xea\xa1G'
p62
tp63
Rp64
aI0
aI0
aI0
aI0
aI0
aI0
aI0
aI0
ag1
(g5
S'\xeb\xcf)\xc0mF\xdbG'
p65
tp66
Rp67
ag1
(g5
S'mi\xbe \x88s|G'
p68
tp69
Rp70
aI0
aI0
aI0
aI0
aI0
aI0
aI0
aI0
aI0
aI0
aI0
aI0
aI0
aI0
ag1
(g5
S'^\xeeH\xe1d>\xc8G'
p71
tp72
Rp73
aI0
aI0
ag1
(g5
S'\xeb\xf6@0\x94\x02\xb6G'
p74
tp75
Rp76
aI0
ag1
(g5
S'\xc3}\n,@z\xa9G'
p77
tp78
Rp79
aI0
aI0
aI0
aI0
aI0
ag1
(g5
S'\x16*\x1fZ\xdae\xd8G'
p80
tp81
Rp82
ag1
(g5
S'\xb3\x7f\xfc\xebB\xf3qG'
p83
tp84
Rp85
aI0
aI0
aI0
ag1
(g5
S'?\x86!y\xd67\x91G'
p86
tp87
Rp88
aI0
aI0
aI0
aI0
aI0
aI0
aI0
aI0
aI0
aI0
aI0
aI0
aI0
aI0
aI0
ag1
(g5
S"\xd2'\x95\xc8\x17\xbc\x9fG"
p89
tp90
Rp91
aI0
aI0
ag1
(g5
S'\x87$MSI\xa7\xd5G'
p92
tp93
Rp94
aI0
aI0
aI0
aI0
ag1
(g5
S'\xf4\x8aNPM\x10\xb0G'
p95
tp96
Rp97
aI0
ag1
(g5
S'\xf8\x98\x89\xe10\x94\xafG'
p98
tp99
Rp100
aI0
ag1
(g5
S'L`W*d\xc8\xfdG'
p101
tp102
Rp103
aI0
aI0
aI0
aI0
aI0
aI0
aI0
aI0
aI0
aI0
aI0
ag1
(g5
S'\n\xd5\x90s\x08\xfc\xacG'
p104
tp105
Rp106
aI0
aI0
aI0
aI0
aI0
aI0
aI0
aI0
aI0
aI0
ag1
(g5
S'3\r\x81<\xd3!\xa8G'
p107
tp108
Rp109
aI0
aI0
aI0
aI0
aI0
aI0
aI0
aI0
aI0
aI0
aI0
ag1
(g5
S'\xf8\xe0O\x82\x9ao\x8cG'
p110
tp111
Rp112
ag1
(g5
S'\x88>\xa5\xb8\xd1R\xc0G'
p113
tp114
Rp115
ag1
(g5
S'J\xf2\xcf\xa2\x1d0\x9cG'
p116
tp117
Rp118
aI0
aI0
aI0
aI0
aI0
aI0
aI0
aI0
aI0
aI0
aI0
aI0
aI0
aI0
aI0
aI0
aI0
aI0
aI0
ag1
(g5
S'\xad6\x84\x0f\x835\xc9G'
p119
tp120
Rp121
aI0
aI0
aI0
ag1
(g5
S'?\x85\xf7\x19\xf9T\x91G'
p122
tp123
Rp124
aI0
aI0
aI0
aI0
ag1
(g5
S'\x92\xd3.\x8e\xdf.\xa4G'
p125
tp126
Rp127
aI0
aI0
ag1
(g5
S'\x90\x12\xfe{\xe3\x99\x95G'
p128
tp129
Rp130
aI0
aI0
ag1
(g5
S'B\xc7^p\x08\\\xa3G'
p131
tp132
Rp133
aI0
aI0
aI0
aI0
aI0
aI0
aI0
aI0
aI0
aI0
aI0
aI0
aI0
aI0
aI0
aI0
ag1
(g5
S'9\xb6%\xee\xbe(\xb2G'
p134
tp135
Rp136
aI0
aI0
aI0
aI0
aI0
aI0
ag1
(g5
S'\xab\xfb\xa2Cv\\\x92G'
p137
tp138
Rp139
aI0
aI0
aI0
aI0
aI0
aI0
aI0
aI0
aI0
ag1
(g5
S'\xb3\xd4D\x10\x8c\x1a\xa9G'
p140
tp141
Rp142
aI0
aI0
aI0
aI0
aI0
aI0
aI0
ag1
(g5
S'\x00\x00\x00\x00\x00\x00\xf8\x7f'
p143
tp144
Rp145
aI0
ag1
(g5
S'\xa6"\x06\xaeA\x06\x83G'
p146
tp147
Rp148
aI0
ag1
(g5
S'\xb8\xc6T\xbe\xd6P\xb1G'
p149
tp150
Rp151
ag1
(g5
S'?\xff\xf7V\xe8\xf7\xd3G'
p152
tp153
Rp154
aI0
aI0
aI0
aI0
aI0
aI0
aI0
aI0
ag1
(g5
S'\x8f\x1e\x1aK\x10j\xb6G'
p155
tp156
Rp157
aI0
aI0
aI0
aI0
aI0
aI0
aI0
aI0
aI0
aI0
aI0
aI0
aI0
aI0
aI0
aI0
aI0
aI0
aI0
aI0
aI0
aI0
aI0
aI0
aI0
ag1
(g5
S'\xc2]\xb6_\x89\xa8\xadG'
p158
tp159
Rp160
ag1
(g5
S'4\x93]\xa2\xe2\x08\x96G'
p161
tp162
Rp163
aI0
ag1
(g5
S'9y\xfdW\xf1\x80\xb0G'
p164
tp165
Rp166
aI0
ag1
(g5
S'^\x1e\x9d\x1f\xf1>\xb1G'
p167
tp168
Rp169
aI0
aI0
aI0
aI0
aI0
aI0
aI0
aI0
aI0
aI0
aI0
aI0
aI0
ag1
(g5
S'\x00\x00\x00\x00\x00\x00\xf8\x7f'
p170
tp171
Rp172
ag1
(g5
S'\xbb\x17\xb82r\x1c\xc3G'
p173
tp174
Rp175
aI0
aI0
aI0
aI0
aI0
ag1
(g5
S'\xb1`yI\xd7\xb8\xb2G'
p176
tp177
Rp178
aI0
aI0
aI0
aI0
ag1
(g5
S'\xb5\xd6\x8d@\xdf\x92aG'
p179
tp180
Rp181
aI0
aI0
aI0
aI0
aI0
aI0
aI0
ag1
(g5
S'\xfaI\xee=\\\x14\x8bG'
p182
tp183
Rp184
aI0
aI0
ag1
(g5
S'o\x13\xaf\xe2\xfa\x9a|G'
p185
tp186
Rp187
ag1
(g5
S'\xc4\xf5M!\xd9\x01\xbbG'
p188
tp189
Rp190
aI0
aI0
aI0
aI0
aI0
aI0
aI0
aI0
aI0
ag1
(g5
S'\r\x8c S\x14\xdd\xc3G'
p191
tp192
Rp193
ag1
(g5
S'\x1dr\xf1s\xd2g\xb7G'
p194
tp195
Rp196
aI0
ag1
(g5
S'O\xcc\x9c\x00\xa9\xb1jG'
p197
tp198
Rp199
aI0
aI0
aI0
aI0
aI0
aI0
aI0
aI0
aI0
aI0
ag1
(g5
S'\xb0e\xc4\xc0[0[G'
p200
tp201
Rp202
aI0
aI0
aI0
aI0
aI0
aI0
aI0
aI0
aI0
aI0
ag1
(g5
S'6\xfc\x10\xd5\x8bJ\xbeG'
p203
tp204
Rp205
aI0
aI0
ag1
(g5
S'\xe2\xd9\xf8\xe6;E\xb5G'
p206
tp207
Rp208
aI0
aI0
ag1
(g5
S'\xd8\xddG\xban"aG'
p209
tp210
Rp211
aI0
aI0
aI0
aI0
aI0
aI0
aI0
aI0
aI0
aI0
aI0
aI0
aI0
aI0
aI0
aI0
aI0
aI0
aI0
aI0
aI0
aI0
aI0
aI0
aI0
aI0
aI0
aI0
ag1
(g5
S'j\x95\x88\n<\xe1\xd3G'
p212
tp213
Rp214
aI0
aI0
aI0
aI0
aI0
aI0
aI0
aI0
ag1
(g5
S'\x8b\x14\x02K*;\xa8G'
p215
tp216
Rp217
aI0
aI0
aI0
aI0
aI0
aI0
aI0
aI0
aI0
aI0
aI0
aI0
aI0
ag1
(g5
S'k;Z.\xbf\xd1tG'
p218
tp219
Rp220
aI0
aI0
ag1
(g5
S'K\xee\x13\x8c1\x18\xb6G'
p221
tp222
Rp223
aI0
aI0
aI0
aI0
aI0
aI0
aI0
aI0
ag1
(g5
S'J\xfc\xba\xeb\xdd\xe2\x9dG'
p224
tp225
Rp226
aI0
aI0
aI0
ag1
(g5
S'&%\x031\xa3\x15\x9bG'
p227
tp228
Rp229
aI0
aI0
aI0
aI0
aI0
aI0
aI0
aI0
aI0
ag1
(g5
S'D\xbf8\xeb\x96\xa5\xa4G'
p230
tp231
Rp232
aI0
aI0
aI0
ag1
(g5
S'\xc5{O\xfaP\xce\x86G'
p233
tp234
Rp235
ag1
(g5
S'vz\xe8;\xc6\xc3ZG'
p236
tp237
Rp238
aI0
aI0
aI0
aI0
aI0
aI0
aI0
aI0
aI0
aI0
aI0
aI0
aI0
aI0
aI0
aI0
aI0
aI0
ag1
(g5
S'!\xdes\x81\xcb\xc6\xb4G'
p239
tp240
Rp241
aI0
aI0
aI0
aI0
aI0
ag1
(g5
S'\x05\xebjgo\x01\xbaG'
p242
tp243
Rp244
aI0
aI0
aI0
aI0
aI0
ag1
(g5
S'5\x8bZ\xfaB/\x8aG'
p245
tp246
Rp247
aI0
aI0
aI0
aI0
aI0
aI0
aI0
aI0
aI0
aI0
aI0
aI0
ag1
(g5
S'\xf6\r\xce\xf9\xf6\x15\xaaG'
p248
tp249
Rp250
ag1
(g5
S'\xb1)\xf6\x1e\xb2\xeb\xa3G'
p251
tp252
Rp253
aI0
aI0
ag1
(g5
S'\xfc\xcb\xc6\\\xc2\xae\x94G'
p254
tp255
Rp256
aI0
ag1
(g5
S'\x96?&\xc4\x0b\x92\x91G'
p257
tp258
Rp259
aI0
ag1
(g5
S'\x000\xca\xf7\xe2O\xd5G'
p260
tp261
Rp262
aI0
aI0
aI0
aI0
aI0
aI0
aI0
aI0
aI0
aI0
ag1
(g5
S'\x83[O\xfe\xa8c\xa0G'
p263
tp264
Rp265
ag1
(g5
S'{~\x84FY\xf1\xe0G'
p266
tp267
Rp268
aI0
aI0
aI0
aI0
aI0
aI0
aI0
aI0
aI0
aI0
ag1
(g5
S'\xd3\xb1y\x90c\xa8\xa0G'
p269
tp270
Rp271
aI0
aI0
aI0
aI0
aI0
aI0
aI0
aI0
aI0
aI0
aI0
aI0
aI0
ag1
(g5
S'3]X\x05\xc6\x8c\xb1G'
p272
tp273
Rp274
aI0
aI0
ag1
(g5
S'\x95P\xa4\xd6\x8a\xb8\xbbG'
p275
tp276
Rp277
aI0
aI0
aI0
aI0
ag1
(g5
S'\xac\xd3y\x82!i\x8eG'
p278
tp279
Rp280
aI0
aI0
aI0
aI0
aI0
aI0
aI0
aI0
aI0
aI0
aI0
aI0
ag1
(g5
S'\xe4Zd\xd5\x9a\x9a\xaeG'
p281
tp282
Rp283
aI0
aI0
aI0
aI0
aI0
ag1
(g5
S'\xd4Z\x15\xc8vL\x90G'
p284
tp285
Rp286
aI0
aI0
aI0
ag1
(g5
S'\x06\xbcLZ\x08t\xc8G'
p287
tp288
Rp289
ag1
(g5
S'\x00\x00\x00\x00\x00\x00\xf8\x7f'
p290
tp291
Rp292
aI0
aI0
aI0
aI0
aI0
aI0
aI0
ag1
(g5
S'C\x15\x05\xc0\xff\x7f\xb1G'
p293
tp294
Rp295
aI0
aI0
aI0
aI0
aI0
aI0
ag1
(g5
S'\x06&\x84\xc8<\x84\xb1G'
p296
tp297
Rp298
aI0
aI0
aI0
aI0
aI0
aI0
aI0
aI0
aI0
aI0
aI0
aI0
aI0
aI0
aI0
aI0
aI0
aI0
ag1
(g5
S'\xdf\xd4\xdb\xf9-\x12\xa3G'
p299
tp300
Rp301
aI0
aI0
aI0
aI0
aI0
ag1
(g5
S'?R\xa1\x87pZ\xe4G'
p302
tp303
Rp304
aI0
aI0
aI0
aI0
aI0
aI0
aI0
aI0
aI0
aI0
aI0
aI0
ag1
(g5
S'\xe8\xdc\xc0\xa2\xc5\xc7\x8eG'
p305
tp306
Rp307
aI0
aI0
aI0
aI0
ag1
(g5
S'\x19\xf4\xd2\xb6\xf8K\xd7G'
p308
tp309
Rp310
aI0
aI0
aI0
aI0
ag1
(g5
S'Q!\xf9\x8a\n\xe3\xafG'
p311
tp312
Rp313
ag1
(g5
S'\x8b\x9cCr1\x14\xd0G'
p314
tp315
Rp316
aI0
aI0
aI0
aI0
aI0
aI0
ag1
(g5
S'z\x10\xc5\xaf\xd84\xb6G'
p317
tp318
Rp319
aI0
aI0
aI0
aI0
aI0
aI0
aI0
aI0
aI0
aI0
aI0
aI0
aI0
aI0
ag1
(g5
S'\xf1\xac0\x8df\xb5\xdeG'
p320
tp321
Rp322
aI0
aI0
aI0
aI0
aI0
ag1
(g5
S'\x00\x00\x00\x00\x00\x00\xf8\x7f'
p323
tp324
Rp325
aI0
aI0
ag1
(g5
S'\xca\xec\xc9\xadF\x05\xb9G'
p326
tp327
Rp328
ag1
(g5
S'\x15i8%9\xcdwG'
p329
tp330
Rp331
aI0
aI0
ag1
(g5
S'\x00\x00\x00\x00\x00\x00\xf8\x7f'
p332
tp333
Rp334
aI0
ag1
(g5
S']\xb0g\xb1\x13\x13\x99G'
p335
tp336
Rp337
aI0
aI0
ag1
(g5
S'\x10\x87\x9c\xf96\xea\xb5G'
p338
tp339
Rp340
aI0
aI0
aI0
aI0
aI0
aI0
aI0
aI0
aI0
aI0
ag1
(g5
S'\xf6_m\xbd\x01uQG'
p341
tp342
Rp343
ag1
(g5
S'\xcf\x18\xd6\x82\x1d\x9f\x9bG'
p344
tp345
Rp346
aI0
aI0
ag1
(g5
S'\xc3\x06\x1551=\x80G'
p347
tp348
Rp349
aI0
aI0
aI0
aI0
aI0
aI0
aI0
aI0
aI0
aI0
aI0
aI0
aI0
ag1
(g5
S'X\x18h\x8f\x94\xdd\x83G'
p350
tp351
Rp352
aI0
aI0
aI0
aI0
aI0
aI0
aI0
aI0
aI0
aI0
aI0
aI0
aI0
aI0
ag1
(g5
S'\x7f\xf4s\xca\xdb\xe3\xb7G'
p353
tp354
Rp355
aI0
aI0
aI0
ag1
(g5
S'zU\xa9%(\xa5\xafG'
p356
tp357
Rp358
aI0
aI0
ag1
(g5
S'\xc8\xfd\x81q1=\x84G'
p359
tp360
Rp361
ag1
(g5
S'u\xf0S\x01\x167\x8fG'
p362
tp363
Rp364
ag1
(g5
S'\x16Z\xefQ\xdd\x13\x06H'
p365
tp366
Rp367
ag1
(g5
S'R\x97O\xfc\xbd\x0b\xa4G'
p368
tp369
Rp370
aI0
aI0
aI0
aI0
ag1
(g5
S'\x90\x89>\xdbb\xf2\x89G'
p371
tp372
Rp373
aI0
ag1
(g5
S'\x861\x13@\xa6-\xa8G'
p374
tp375
Rp376
aI0
aI0
aI0
aI0
aI0
aI0
aI0
aI0
aI0
aI0
aI0
aI0
ag1
(g5
S'T\xc1d\xca5K\xe1G'
p377
tp378
Rp379
ag1
(g5
S'b?\xf8\x98\xd6\xcb\x9eG'
p380
tp381
Rp382
ag1
(g5
S'B\xf8\xeb\xe4\xbe&\xb7G'
p383
tp384
Rp385
aI0
aI0
aI0
aI0
aI0
aI0
aI0
aI0
aI0
aI0
aI0
ag1
(g5
S'\xfa\xa0\xd1\xf8\x14\xbe\xa9G'
p386
tp387
Rp388
aI0
aI0
aI0
aI0
ag1
(g5
S'6_\t%Y\x8f\xe5G'
p389
tp390
Rp391
aI0
aI0
aI0
aI0
aI0
aI0
aI0
aI0
aI0
aI0
aI0
ag1
(g5
S'r\xaeU@%J\xaeG'
p392
tp393
Rp394
aI0
ag1
(g5
S'O\x1d-\xfaTh\x81G'
p395
tp396
Rp397
aI0
aI0
aI0
aI0
aI0
aI0
aI0
aI0
aI0
aI0
aI0
aI0
aI0
aI0
aI0
aI0
aI0
aI0
aI0
ag1
(g5
S'\xa7\x1a\n\xeb\x03\xe4\xe7G'
p398
tp399
Rp400
aI0
aI0
aI0
aI0
ag1
(g5
S'\x92N\xe1vi\x1a\xf5G'
p401
tp402
Rp403
aI0
aI0
aI0
aI0
aI0
aI0
aI0
aI0
aI0
aI0
aI0
ag1
(g5
S'G\xd59}X\xdc\x87G'
p404
tp405
Rp406
aI0
aI0
aI0
aI0
aI0
aI0
aI0
aI0
ag1
(g5
S'\t&\xde\x1d{B\x99G'
p407
tp408
Rp409
aI0
aI0
aI0
aI0
aI0
aI0
aI0
aI0
aI0
aI0
aI0
aI0
aI0
aI0
aI0
aI0
aI0
aI0
aI0
aI0
aI0
ag1
(g5
S'\xf9\x13)j\x13*\xb3G'
p410
tp411
Rp412
aI0
aI0
aI0
aI0
aI0
aI0
aI0
aI0
aI0
aI0
aI0
aI0
ag1
(g5
S'\xd4\xa38[D\x9d\xbbG'
p413
tp414
Rp415
aI0
ag1
(g5
S'\xb0\xd4_\xb1\xbaVmG'
p416
tp417
Rp418
ag1
(g5
S'4\xa5\xd3k\xd9\xa4vG'
p419
tp420
Rp421
aI0
aI0
aI0
aI0
ag1
(g5
S'\xc8\xb5J Li\x98G'
p422
tp423
Rp424
aI0
aI0
aI0
aI0
aI0
aI0
aI0
aI0
aI0
aI0
aI0
aI0
aI0
aI0
aI0
aI0
aI0
aI0
aI0
aI0
aI0
ag1
(g5
S'\xa7|\xa9!\xa8\xa9\x81G'
p425
tp426
Rp427
aI0
aI0
ag1
(g5
S'\x86\x88\x9b8\xb1\xe3\x99G'
p428
tp429
Rp430
aI0
aI0
ag1
(g5
S'\x93\x08}!\\\xfa\xbdG'
p431
tp432
Rp433
aI0
ag1
(g5
S'\xa0\xaaB\xa2\xb3\x81wG'
p434
tp435
Rp436
aI0
aI0
aI0
aI0
ag1
(g5
S'\xf7;B\x17\xd3\xd3\x93G'
p437
tp438
Rp439
ag1
(g5
S'Zv\xfe\x8e\xbb\x1f\xc9G'
p440
tp441
Rp442
aI0
ag1
(g5
S'\x00\x00\x00\x00\x00\x00\xf8\x7f'
p443
tp444
Rp445
aI0
ag1
(g5
S'\x8d\xb8\x97U\x0ec{G'
p446
tp447
Rp448
aI0
aI0
aI0
aI0
ag1
(g5
S'\x00\x00\x00\x00\x00\x00\xf8\x7f'
p449
tp450
Rp451
aI0
aI0
aI0
aI0
ag1
(g5
S'\x04\xf0\xb9"\xe5\xfc\xd5G'
p452
tp453
Rp454
aI0
aI0
aI0
aI0
aI0
aI0
aI0
aI0
aI0
aI0
aI0
ag1
(g5
S'b\x82\x0f*\xf7\xdf\x83G'
p455
tp456
Rp457
ag1
(g5
S'\xa5\n?}!\xdf\xd7G'
p458
tp459
Rp460
aI0
aI0
aI0
ag1
(g5
S'q\xfc;\x91\x0c\xa2\xd3G'
p461
tp462
Rp463
aI0
aI0
aI0
aI0
aI0
aI0
aI0
aI0
aI0
aI0
aI0
aI0
ag1
(g5
S'\xb0t%\xed\x05\x99DG'
p464
tp465
Rp466
aI0
aI0
aI0
aI0
aI0
aI0
aI0
aI0
aI0
aI0
aI0
aI0
aI0
aI0
aI0
aI0
aI0
aI0
ag1
(g5
S'#o\xb1\xb8\x89\xcd\xa2G'
p467
tp468
Rp469
aI0
aI0
aI0
aI0
aI0
aI0
ag1
(g5
S'\xa7\x97\xc6\xd3\xec\xad\xb6G'
p470
tp471
Rp472
aI0
ag1
(g5
S'\x00\x00\x00\x00\x00\x00\xf8\x7f'
p473
tp474
Rp475
aI0
aI0
ag1
(g5
S'\x9ft\x9d\x93\x86o\x90G'
p476
tp477
Rp478
aI0
aI0
aI0
aI0
aI0
aI0
aI0
aI0
aI0
aI0
aI0
aI0
aI0
aI0
ag1
(g5
S'\x05\x87%#)\xa7\xb8G'
p479
tp480
Rp481
aI0
aI0
aI0
aI0
ag1
(g5
S'\x9b\x92\x05&\x15\x87{G'
p482
tp483
Rp484
aI0
aI0
aI0
aI0
aI0
aI0
aI0
aI0
aI0
aI0
aI0
aI0
aI0
aI0
aI0
aI0
aI0
aI0
aI0
aI0
aI0
aI0
aI0
aI0
aI0
ag1
(g5
S'\x00\x00\x00\x00\x00\x00\xf8\x7f'
p485
tp486
Rp487
aI0
ag1
(g5
S'\xe4`\xcb#\xb3\xd7\xabG'
p488
tp489
Rp490
aI0
aI0
aI0
aI0
aI0
aI0
aI0
aI0
aI0
aI0
ag1
(g5
S'\x9c\x18\x1bk\x10\x0b\x8eG'
p491
tp492
Rp493
aI0
aI0
aI0
aI0
aI0
ag1
(g5
S'\t\x99\xe48_\xa9\x8cG'
p494
tp495
Rp496
ag1
(g5
S'+\xd3(,\xf0\xf3\xc2G'
p497
tp498
Rp499
aI0
aI0
ag1
(g5
S'\xe7j\xc8\xcd\xf9\xc9\xa2G'
p500
tp501
Rp502
aI0
aI0
aI0
aI0
aI0
ag1
(g5
S'3&=\x0fY\x0f\xb5G'
p503
tp504
Rp505
aI0
aI0
ag1
(g5
S'\x96,8\xba\xecL\x8bG'
p506
tp507
Rp508
ag1
(g5
S'{\xbfwR\xde\xf4\xdaG'
p509
tp510
Rp511
aI0
aI0
aI0
aI0
aI0
aI0
aI0
aI0
aI0
aI0
aI0
aI0
aI0
aI0
aI0
aI0
aI0
aI0
aI0
aI0
ag1
(g5
S'\x15\xcdW\x19Ro\xacG'
p512
tp513
Rp514
aI0
aI0
aI0
aI0
aI0
ag1
(g5
S'\x80\x9e\xd3\x07\xb2\x1e\xcaG'
p515
tp516
Rp517
aI0
ag1
(g5
S'6\xcc\xf9&-\x85\xd4G'
p518
tp519
Rp520
aI0
aI0
aI0
aI0
aI0
aI0
aI0
aI0
aI0
aI0
aI0
ag1
(g5
S'\xa0\xc9\x19B\xf8\xa8\x8eG'
p521
tp522
Rp523
aI0
aI0
aI0
aI0
ag1
(g5
S'\xc1\xac7\xdb6\x86\xb1G'
p524
tp525
Rp526
aI0
aI0
ag1
(g5
S'\x14\x99~\xc9\x80\x14\xc9G'
p527
tp528
Rp529
aI0
ag1
(g5
S'w\xfa\xaf\xdcm\xdc\x93G'
p530
tp531
Rp532
aI0
aI0
aI0
ag1
(g5
S'\x06f\xd4\x82\x9c\x8b\x91G'
p533
tp534
Rp535
aI0
aI0
ag1
(g5
S'\xfc\t\xc5F\x13|\xc0G'
p536
tp537
Rp538
aI0
ag1
(g5
S'\x93\x041f\xad\xc3\xb8G'
p539
tp540
Rp541
aI0
aI0
aI0
ag1
(g5
S'\xf5-\x9fG\x8cz\xa4G'
p542
tp543
Rp544
aI0
aI0
aI0
aI0
aI0
aI0
aI0
aI0
ag1
(g5
S'U\x02\x82\xd4\rI\xaeG'
p545
tp546
Rp547
aI0
aI0
aI0
aI0
aI0
aI0
ag1
(g5
S'\x80\xbe\x02\xb3\xfe\xbc\x86G'
p548
tp549
Rp550
aI0
aI0
ag1
(g5
S'\xc2\x98\xe9\xcf\xd2z\xbbG'
p551
tp552
Rp553
aI0
aI0
aI0
aI0
ag1
(g5
S'\x7f\xb8\xd7\xec\x01\x01\xb0G'
p554
tp555
Rp556
aI0
aI0
aI0
aI0
aI0
aI0
ag1
(g5
S'Wh\xb9FU>\xb2G'
p557
tp558
Rp559
aI0
aI0
aI0
aI0
aI0
aI0
aI0
aI0
aI0
aI0
aI0
aI0
aI0
aI0
ag1
(g5
S'`\xa7dt_\x86\xadG'
p560
tp561
Rp562
aI0
aI0
aI0
aI0
aI0
aI0
aI0
aI0
aI0
ag1
(g5
S' wt\x06h:jG'
p563
tp564
Rp565
aI0
aI0
aI0
aI0
aI0
aI0
aI0
aI0
aI0
aI0
aI0
aI0
aI0
aI0
aI0
aI0
aI0
aI0
aI0
aI0
aI0
aI0
aI0
aI0
ag1
(g5
S'\x08\x0b\xed\xd2d\xd6\xafG'
p566
tp567
Rp568
ag1
(g5
S'\xa0"\xa0~\xa2\x08uG'
p569
tp570
Rp571
aI0
aI0
aI0
aI0
aI0
aI0
aI0
aI0
aI0
aI0
aI0
aI0
aI0
aI0
aI0
aI0
aI0
aI0
aI0
aI0
aI0
aI0
aI0
ag1
(g5
S'\x8b\xe4\xdd\xf4]\xe2\x94G'
p572
tp573
Rp574
aI0
aI0
aI0
aI0
aI0
aI0
aI0
ag1
(g5
S'5\x92\xbb\xa4\x93![G'
p575
tp576
Rp577
aI0
aI0
aI0
aI0
aI0
aI0
aI0
aI0
ag1
(g5
S'\xf9\x95\x9bN\xddc\x8aG'
p578
tp579
Rp580
aI0
aI0
aI0
aI0
aI0
aI0
ag1
(g5
S'\x9f\xe8\xa2\xb7\xa6\x8a\x8aG'
p581
tp582
Rp583
aI0
aI0
aI0
aI0
ag1
(g5
S'\xde:\x90C\x8e\xfa\xc5G'
p584
tp585
Rp586
aI0
aI0
ag1
(g5
S'\x9aV\xd6\xe1\xa6R\x8cG'
p587
tp588
Rp589
ag1
(g5
S'\x8c\xaaq5\xb0N\xc1G'
p590
tp591
Rp592
aI0
aI0
aI0
aI0
aI0
aI0
aI0
aI0
aI0
aI0
aI0
aI0
aI0
aI0
aI0
aI0
aI0
aI0
aI0
aI0
aI0
aI0
aI0
ag1
(g5
S'3\xdb\xa2\xfeH\xdb\xa4G'
p593
tp594
Rp595
aI0
aI0
aI0
aI0
ag1
(g5
S'\xfa\x9a"\xaf,\x18\x9fG'
p596
tp597
Rp598
aI0
aI0
ag1
(g5
S'\x8c\x1fR\xf9y]\xd0G'
p599
tp600
Rp601
aI0
aI0
ag1
(g5
S'l\x1b\x85f\xf0o\xb0G'
p602
tp603
Rp604
ag1
(g5
S'V:"\xc7\x00\x07wG'
p605
tp606
Rp607
aI0
aI0
ag1
(g5
S'GC\\\x99\xebh\x9cG'
p608
tp609
Rp610
aI0
aI0
aI0
aI0
aI0
aI0
aI0
aI0
aI0
aI0
aI0
aI0
aI0
aI0
aI0
ag1
(g5
S'\x8e\x10B\xb8l\xe6\xc3G'
p611
tp612
Rp613
aI0
aI0
aI0
aI0
aI0
aI0
aI0
ag1
(g5
S'\x00\x00\x00\x00\x00\x00\xf8\x7f'
p614
tp615
Rp616
ag1
(g5
S'\x1a8Y\x84\xddQ\x96G'
p617
tp618
Rp619
aI0
aI0
aI0
aI0
aI0
aI0
aI0
aI0
aI0
ag1
(g5
S'\x04\x88\x19WM\x17\xa1G'
p620
tp621
Rp622
aI0
ag1
(g5
S'\x00\x00\x00\x00\x00\x00\xf8\x7f'
p623
tp624
Rp625
aI0
aI0
aI0
aI0
aI0
aI0
aI0
ag1
(g5
S"'\xe1\xee\xaf\xcb\x1a\xd8G"
p626
tp627
Rp628
aI0
aI0
aI0
ag1
(g5
S'Nh\x15\x15k*\x88G'
p629
tp630
Rp631
aI0
aI0
ag1
(g5
S'\xa4\x97M\xa7\x97\xab\xaeG'
p632
tp633
Rp634
aI0
aI0
aI0
aI0
ag1
(g5
S'Fd\xd2U\xe5,\xc1G'
p635
tp636
Rp637
ag1
(g5
S'T9\xf3\xef\xafm\x98G'
p638
tp639
Rp640
aI0
ag1
(g5
S'5%\x97\xdb\xa7\x89\x92G'
p641
tp642
Rp643
aI0
aI0
aI0
aI0
aI0
aI0
aI0
aI0
aI0
aI0
aI0
aI0
ag1
(g5
S'@\xdd\x06\xfe&.\x97G'
p644
tp645
Rp646
aI0
aI0
aI0
aI0
aI0
aI0
aI0
aI0
aI0
aI0
aI0
ag1
(g5
S'J\xc8C$\x8e\xb3\x95G'
p647
tp648
Rp649
aI0
aI0
aI0
aI0
aI0
aI0
aI0
ag1
(g5
S'\xf4B@/Kw\xf3G'
p650
tp651
Rp652
aI0
aI0
aI0
aI0
aI0
aI0
aI0
ag1
(g5
S'\xe3\xff\x8d_\xd5F\xa0G'
p653
tp654
Rp655
aI0
ag1
(g5
S'v\x18K\x88\xc8\x11\xb1G'
p656
tp657
Rp658
aI0
aI0
aI0
ag1
(g5
S'\x8aX\x88\xd6\x85\xd9\xc3G'
p659
tp660
Rp661
aI0
ag1
(g5
S'\x08s\xd5|\xeeU\xb3G'
p662
tp663
Rp664
aI0
aI0
aI0
aI0
aI0
aI0
aI0
aI0
aI0
aI0
aI0
aI0
aI0
aI0
ag1
(g5
S'\x9b\x0e\x915\x8f\xd0\xb7G'
p665
tp666
Rp667
aI0
aI0
aI0
aI0
aI0
aI0
aI0
aI0
ag1
(g5
S']F\xc7\x7fJs\xabG'
p668
tp669
Rp670
aI0
aI0
aI0
aI0
aI0
aI0
aI0
ag1
(g5
S'\x00\x00\x00\x00\x00\x00\xf8\x7f'
p671
tp672
Rp673
aI0
aI0
aI0
aI0
aI0
aI0
aI0
ag1
(g5
S'\xc8E\xd0\x9b\x06y\xa0G'
p674
tp675
Rp676
aI0
aI0
aI0
aI0
aI0
aI0
aI0
aI0
aI0
aI0
ag1
(g5
S'N\xae\xeb\xa4\x06|\xadG'
p677
tp678
Rp679
aI0
aI0
ag1
(g5
S'\xce&o\xc6Z\xb3\xb6G'
p680
tp681
Rp682
aI0
aI0
aI0
aI0
aI0
aI0
aI0
aI0
aI0
aI0
aI0
aI0
aI0
aI0
aI0
aI0
aI0
aI0
aI0
ag1
(g5
S'\x9evN\x1dV@\xbcG'
p683
tp684
Rp685
aI0
aI0
aI0
aI0
aI0
aI0
aI0
aI0
aI0
aI0
aI0
aI0
aI0
aI0
aI0
aI0
aI0
aI0
aI0
aI0
aI0
aI0
aI0
aI0
aI0
aI0
aI0
aI0
ag1
(g5
S'\xee\x81\xfb!\xcca\xa8G'
p686
tp687
Rp688
aI0
ag1
(g5
S'\x03\xdb\\\tp\xe3\x8aG'
p689
tp690
Rp691
aI0
aI0
aI0
aI0
ag1
(g5
S'\x9eO\x16\xf9`\xfc\xaaG'
p692
tp693
Rp694
aI0
aI0
aI0
aI0
aI0
aI0
aI0
ag1
(g5
S'\xdc\x00\x84\x8d9\xe7\x81G'
p695
tp696
Rp697
aI0
aI0
ag1
(g5
S'\xf6|{\xc1m \xa4G'
p698
tp699
Rp700
aI0
aI0
ag1
(g5
S'f\x84z,\xa4\x10\xb8G'
p701
tp702
Rp703
aI0
aI0
ag1
(g5
S'\xd4\xc1\x97\xcd!O\xbfG'
p704
tp705
Rp706
aI0
aI0
ag1
(g5
S'\xdd\xe7\x17"\xd3\xa0\xb1G'
p707
tp708
Rp709
aI0
aI0
aI0
aI0
aI0
aI0
aI0
ag1
(g5
S'\xad\xbc\xda3\xb1\x1d\xbeG'
p710
tp711
Rp712
aI0
aI0
aI0
aI0
aI0
aI0
aI0
ag1
(g5
S'\xdc\xfb\xd2&xm\xabG'
p713
tp714
Rp715
ag1
(g5
S'\xacv\xb2\xc6\x08\xd0\x8aG'
p716
tp717
Rp718
aI0
aI0
aI0
aI0
aI0
aI0
aI0
aI0
ag1
(g5
S'\x07\x9e\xc9\xd2.,\xaaG'
p719
tp720
Rp721
aI0
aI0
aI0
ag1
(g5
S'N\xd2\xc1\xebV\xbc\x85G'
p722
tp723
Rp724
aI0
aI0
aI0
aI0
aI0
aI0
aI0
aI0
aI0
aI0
aI0
aI0
ag1
(g5
S'\xa6\xf1\x89\xdd\x18\x8d\xccG'
p725
tp726
Rp727
aI0
aI0
aI0
aI0
aI0
aI0
aI0
aI0
aI0
aI0
ag1
(g5
S'RL\x00\xb6Ma\xb0G'
p728
tp729
Rp730
aI0
aI0
aI0
aI0
aI0
aI0
ag1
(g5
S'\xb2\x9c\xaf\xff\\O\xc4G'
p731
tp732
Rp733
aI0
aI0
aI0
ag1
(g5
S'b\xee\xdc\x08 \n\x80G'
p734
tp735
Rp736
aI0
ag1
(g5
S'\xa4\xd8\xf5\x04\xe1\x88\x85G'
p737
tp738
Rp739
aI0
aI0
aI0
ag1
(g5
S'\xa6\xd9\xdd\xaeV.eG'
p740
tp741
Rp742
aI0
aI0
aI0
aI0
aI0
aI0
aI0
aI0
aI0
aI0
aI0
aI0
aI0
aI0
aI0
aI0
aI0
aI0
aI0
aI0
aI0
aI0
aI0
aI0
aI0
aI0
aI0
aI0
aI0
aI0
aI0
aI0
aI0
aI0
aI0
aI0
aI0
aI0
aI0
aI0
aI0
aI0
aI0
ag1
(g5
S'\xe6c\x8f\xc2t\xbd\xbeG'
p743
tp744
Rp745
aI0
aI0
aI0
aI0
aI0
aI0
aI0
aI0
aI0
aI0
aI0
aI0
aI0
aI0
aI0
aI0
aI0
aI0
aI0
aI0
aI0
aI0
aI0
aI0
aI0
aI0
aI0
aI0
ag1
(g5
S'\x13\xb1\xed\xa8\x15\x8e\x88G'
p746
tp747
Rp748
ag1
(g5
S'\x92\xd6w\xd0\xaeU\x97G'
p749
tp750
Rp751
aI0
aI0
aI0
aI0
ag1
(g5
S'\xae\xb8\xc4U\x99J\x92G'
p752
tp753
Rp754
aI0
ag1
(g5
S't\xfc\x1bN9\xe2\xd6G'
p755
tp756
Rp757
ag1
(g5
S'xS\xd4\x88\xa8\x90\xd0G'
p758
tp759
Rp760
aI0
aI0
aI0
aI0
aI0
ag1
(g5
S'ev\tX\xf5\xea\x82G'
p761
tp762
Rp763
aI0
ag1
(g5
S'!\x07i/,\xb8\x9dG'
p764
tp765
Rp766
aI0
ag1
(g5
S'\x1f\xeb)u\x97\xe9\x99G'
p767
tp768
Rp769
aI0
aI0
aI0
aI0
aI0
aI0
aI0
ag1
(g5
S'\xb4m\xdb\x87$1\x89G'
p770
tp771
Rp772
ag1
(g5
S'\x8a\x7fs\xee\xb2\xf9\xb7G'
p773
tp774
Rp775
aI0
ag1
(g5
S']\xf8^J-L\x8aG'
p776
tp777
Rp778
aI0
aI0
aI0
aI0
ag1
(g5
S"&/\xe0'\xf3\xf0\x8bG"
p779
tp780
Rp781
ag1
(g5
S'N \x00\xf5\xab\x80\x84G'
p782
tp783
Rp784
aI0
aI0
aI0
aI0
aI0
aI0
ag1
(g5
S'\x16i\x08\xa2\xc8\n\xa1G'
p785
tp786
Rp787
ag1
(g5
S'\xabg\x1e\xac\xb3\xf0\x91G'
p788
tp789
Rp790
aI0
aI0
aI0
aI0
aI0
aI0
aI0
aI0
aI0
aI0
aI0
aI0
aI0
ag1
(g5
S'V\xf1\xaa>\xf5\x05\xb5G'
p791
tp792
Rp793
aI0
aI0
aI0
aI0
aI0
aI0
aI0
ag1
(g5
S'\xea\xc7\x81}^\xf9\xb6G'
p794
tp795
Rp796
aI0
ag1
(g5
S'\xff\xe7Ji\x0f\xc5\x99G'
p797
tp798
Rp799
aI0
aI0
ag1
(g5
S'm\xdd\xc1\x15D\xd4\x95G'
p800
tp801
Rp802
aI0
aI0
aI0
aI0
aI0
aI0
aI0
aI0
ag1
(g5
S'AY{X\xea\x1f\xa9G'
p803
tp804
Rp805
aI0
aI0
aI0
aI0
aI0
ag1
(g5
S'h\x8f\xfa\x9d\xa0\xf6\xb3G'
p806
tp807
Rp808
aI0
aI0
aI0
aI0
aI0
aI0
aI0
aI0
aI0
aI0
aI0
aI0
aI0
ag1
(g5
S'\x0ev5\xdc\x03\x02\x04H'
p809
tp810
Rp811
aI0
aI0
aI0
aI0
aI0
aI0
aI0
aI0
aI0
aI0
aI0
aI0
aI0
aI0
aI0
aI0
aI0
aI0
aI0
aI0
ag1
(g5
S'\xec54\x80\xd7M\x98G'
p812
tp813
Rp814
ag1
(g5
S'\xb0t\xbce=`\xaaG'
p815
tp816
Rp817
ag1
(g5
S'\x83\x9e"(\x04\x1b\xc5G'
p818
tp819
Rp820
aI0
aI0
aI0
aI0
aI0
aI0
aI0
aI0
aI0
aI0
aI0
aI0
aI0
aI0
aI0
ag1
(g5
S'\x00\x00\x00\x00\x00\x00\xf8\x7f'
p821
tp822
Rp823
ag1
(g5
S'\xca\xe5\xe8\x0f\xfe\xd8\xabG'
p824
tp825
Rp826
aI0
aI0
aI0
aI0
ag1
(g5
S'\xa8x\x01/=\x18\xc9G'
p827
tp828
Rp829
ag1
(g5
S'\x99\x95\x00O\x18\xb2\xcaG'
p830
tp831
Rp832
aI0
aI0
aI0
aI0
aI0
aI0
ag1
(g5
S'0\xa9\rQ\xb3HHG'
p833
tp834
Rp835
aI0
aI0
aI0
aI0
ag1
(g5
S'^\xb8]\x88`\xa7\xa3G'
p836
tp837
Rp838
aI0
aI0
aI0
aI0
ag1
(g5
S'\xee\x8d\xf6f\x839\xa3G'
p839
tp840
Rp841
aI0
aI0
aI0
aI0
aI0
aI0
aI0
aI0
aI0
aI0
aI0
aI0
aI0
aI0
aI0
aI0
aI0
a.